target datalayout = "e-m:e-p270:32:32-p271:32:32-p272:64:64-i64:64-i128:128-f80:128-n8:16:32:64-S128"
target triple = "x86_64-pc-linux-gnu"

%struct.jv = type { i8, i8, i16, i32, %union.anon }
%union.anon = type { ptr }

@stderr = external global ptr, align 8
@.str.70 = private unnamed_addr constant [2 x i8] c"\0A\00", align 1
@.str.80 = private unnamed_addr constant [7 x i8] c"DEBUG:\00", align 1

; Function Attrs: nounwind uwtable
define internal void @debug_cb(ptr noundef %0, i64 %1, ptr %2) #0 {
  %4 = alloca %struct.jv, align 8
  %5 = alloca ptr, align 8
  %6 = alloca i32, align 4
  %7 = alloca %struct.jv, align 8
  %8 = alloca %struct.jv, align 8
  %9 = alloca %struct.jv, align 8
  %10 = alloca %struct.jv, align 8
  %11 = getelementptr inbounds nuw { i64, ptr }, ptr %4, i32 0, i32 0
  store i64 %1, ptr %11, align 8
  %12 = getelementptr inbounds nuw { i64, ptr }, ptr %4, i32 0, i32 1
  store ptr %2, ptr %12, align 8
  store ptr %0, ptr %5, align 8, !tbaa !29
  call void @llvm.lifetime.start.p0(i64 4, ptr %6) #10
  %13 = load ptr, ptr %5, align 8, !tbaa !29
  %14 = load i32, ptr %13, align 4, !tbaa !4
  store i32 %14, ptr %6, align 4, !tbaa !4
  %15 = call { i64, ptr } @jv_array()
  %16 = getelementptr inbounds nuw { i64, ptr }, ptr %9, i32 0, i32 0
  %17 = extractvalue { i64, ptr } %15, 0
  store i64 %17, ptr %16, align 8
  %18 = getelementptr inbounds nuw { i64, ptr }, ptr %9, i32 0, i32 1
  %19 = extractvalue { i64, ptr } %15, 1
  store ptr %19, ptr %18, align 8
  %20 = call { i64, ptr } @jv_string(ptr noundef @.str.80)
  %21 = getelementptr inbounds nuw { i64, ptr }, ptr %10, i32 0, i32 0
  %22 = extractvalue { i64, ptr } %20, 0
  store i64 %22, ptr %21, align 8
  %23 = getelementptr inbounds nuw { i64, ptr }, ptr %10, i32 0, i32 1
  %24 = extractvalue { i64, ptr } %20, 1
  store ptr %24, ptr %23, align 8
  %25 = getelementptr inbounds nuw { i64, ptr }, ptr %9, i32 0, i32 0
  %26 = load i64, ptr %25, align 8
  %27 = getelementptr inbounds nuw { i64, ptr }, ptr %9, i32 0, i32 1
  %28 = load ptr, ptr %27, align 8
  %29 = getelementptr inbounds nuw { i64, ptr }, ptr %10, i32 0, i32 0
  %30 = load i64, ptr %29, align 8
  %31 = getelementptr inbounds nuw { i64, ptr }, ptr %10, i32 0, i32 1
  %32 = load ptr, ptr %31, align 8
  %33 = call { i64, ptr } @jv_array_append(i64 %26, ptr %28, i64 %30, ptr %32)
  %34 = getelementptr inbounds nuw { i64, ptr }, ptr %8, i32 0, i32 0
  %35 = extractvalue { i64, ptr } %33, 0
  store i64 %35, ptr %34, align 8
  %36 = getelementptr inbounds nuw { i64, ptr }, ptr %8, i32 0, i32 1
  %37 = extractvalue { i64, ptr } %33, 1
  store ptr %37, ptr %36, align 8
  %38 = getelementptr inbounds nuw { i64, ptr }, ptr %8, i32 0, i32 0
  %39 = load i64, ptr %38, align 8
  %40 = getelementptr inbounds nuw { i64, ptr }, ptr %8, i32 0, i32 1
  %41 = load ptr, ptr %40, align 8
  %42 = getelementptr inbounds nuw { i64, ptr }, ptr %4, i32 0, i32 0
  %43 = load i64, ptr %42, align 8
  %44 = getelementptr inbounds nuw { i64, ptr }, ptr %4, i32 0, i32 1
  %45 = load ptr, ptr %44, align 8
  %46 = call { i64, ptr } @jv_array_append(i64 %39, ptr %41, i64 %43, ptr %45)
  %47 = getelementptr inbounds nuw { i64, ptr }, ptr %7, i32 0, i32 0
  %48 = extractvalue { i64, ptr } %46, 0
  store i64 %48, ptr %47, align 8
  %49 = getelementptr inbounds nuw { i64, ptr }, ptr %7, i32 0, i32 1
  %50 = extractvalue { i64, ptr } %46, 1
  store ptr %50, ptr %49, align 8
  %51 = load ptr, ptr @stderr, align 8, !tbaa !21
  %52 = load i32, ptr %6, align 4, !tbaa !4
  %53 = and i32 %52, -2
  %54 = getelementptr inbounds nuw { i64, ptr }, ptr %7, i32 0, i32 0
  %55 = load i64, ptr %54, align 8
  %56 = getelementptr inbounds nuw { i64, ptr }, ptr %7, i32 0, i32 1
  %57 = load ptr, ptr %56, align 8
  call void @jv_dumpf(i64 %55, ptr %57, ptr noundef %51, i32 noundef %53)
  %58 = load ptr, ptr @stderr, align 8, !tbaa !21
  %59 = call i32 (ptr, ptr, ...) @fprintf(ptr noundef %58, ptr noundef @.str.70) #10
  call void @llvm.lifetime.end.p0(i64 4, ptr %6) #10
  ret void
}