; Function Attrs: nounwind uwtable
define internal void @debug_cb(ptr noundef readonly captures(none) %0, i64 %1, ptr %2) #11 {
  %4 = load i32, ptr %0, align 4, !tbaa !13
  %5 = tail call { i64, ptr } @jv_array() #19
  %6 = extractvalue { i64, ptr } %5, 0
  %7 = extractvalue { i64, ptr } %5, 1
  %8 = tail call { i64, ptr } @jv_string(ptr noundef nonnull @.str.80) #19
  %9 = extractvalue { i64, ptr } %8, 0
  %10 = extractvalue { i64, ptr } %8, 1
  %11 = tail call { i64, ptr } @jv_array_append(i64 %6, ptr %7, i64 %9, ptr %10) #19
  %12 = extractvalue { i64, ptr } %11, 0
  %13 = extractvalue { i64, ptr } %11, 1
  %14 = tail call { i64, ptr } @jv_array_append(i64 %12, ptr %13, i64 %1, ptr %2) #19
  %15 = extractvalue { i64, ptr } %14, 0
  %16 = extractvalue { i64, ptr } %14, 1
  %17 = load ptr, ptr @stderr, align 8, !tbaa !20
  %18 = and i32 %4, -2
  tail call void @jv_dumpf(i64 %15, ptr %16, ptr noundef %17, i32 noundef %18) #19
  %19 = load ptr, ptr @stderr, align 8, !tbaa !20
  %fputc = tail call i32 @fputc(i32 10, ptr %19)
  ret void
}